; Function Attrs: mustprogress uwtable
define internal void @_ZL21DOCTEST_ANON_FUNC_128v() #4 personality ptr @__gxx_personality_v0 {
  %1 = alloca %"class.std::unique_ptr", align 8
  call fastcc void @_ZL14runConformancePKcPFvP9lua_StateES4_S2_P18lua_CompileOptionsbPN4Luau7CodeGen18CompilationOptionsE(ptr dead_on_unwind noalias nonnull writable align 8 %1, ptr noundef nonnull @.str.492, ptr noundef nonnull @"_ZZL21DOCTEST_ANON_FUNC_128vEN3$_08__invokeEP9lua_State", ptr noundef null, ptr noundef null, ptr noundef null, i1 noundef zeroext false, ptr noundef null)
  %2 = getelementptr inbounds i8, ptr %1, i64 8
  %3 = load ptr, ptr %2, align 8
  %.not.i = icmp eq ptr %3, null
  br i1 %.not.i, label %_ZNSt10unique_ptrI9lua_StatePFvPS0_EED2Ev.exit, label %4

4:                                                ; preds = %0
  %5 = load ptr, ptr %1, align 8
  invoke void %5(ptr noundef nonnull %3)
          to label %_ZNSt10unique_ptrI9lua_StatePFvPS0_EED2Ev.exit unwind label %6

6:                                                ; preds = %4
  %7 = landingpad { ptr, i32 }
          catch ptr null
  %8 = extractvalue { ptr, i32 } %7, 0
  tail call void @__clang_call_terminate(ptr %8) #36
  unreachable

_ZNSt10unique_ptrI9lua_StatePFvPS0_EED2Ev.exit:   ; preds = %0, %4
  ret void
}